; ModuleID = 'bench/folly/original/HardwareConcurrency.ll'
source_filename = "bench/folly/original/HardwareConcurrency.ll"
target datalayout = "e-m:e-p270:32:32-p271:32:32-p272:64:64-i64:64-i128:128-f80:128-n8:16:32:64-S128"
target triple = "x86_64-pc-linux-gnu"

%struct.cpu_set_t = type { [16 x i64] }

; Function Attrs: mustprogress nounwind uwtable
define noundef i32 @_ZN5folly20hardware_concurrencyEv() local_unnamed_addr #0 {
  %1 = alloca %struct.cpu_set_t, align 8
  call void @llvm.lifetime.start.p0(i64 128, ptr nonnull %1) #3
  %2 = call i32 @sched_getaffinity(i32 noundef 0, i64 noundef 128, ptr noundef nonnull %1) #3
  %.not = icmp eq i32 %2, 0
  br i1 %.not, label %3, label %5

3:                                                ; preds = %0
  %4 = call i32 @__sched_cpucount(i64 noundef 128, ptr noundef nonnull %1) #3
  %.not5 = icmp eq i32 %4, 0
  br i1 %.not5, label %5, label %7

5:                                                ; preds = %3, %0
  %6 = call noundef i32 @_ZNSt6thread20hardware_concurrencyEv() #3
  br label %7

7:                                                ; preds = %3, %5
  %.1 = phi i32 [ %6, %5 ], [ %4, %3 ]
  call void @llvm.lifetime.end.p0(i64 128, ptr nonnull %1) #3
  ret i32 %.1
}

; Function Attrs: mustprogress nocallback nofree nosync nounwind willreturn memory(argmem: readwrite)
declare void @llvm.lifetime.start.p0(i64 immarg, ptr captures(none)) #1

; Function Attrs: nounwind
declare i32 @sched_getaffinity(i32 noundef, i64 noundef, ptr noundef) local_unnamed_addr #2

; Function Attrs: nounwind
declare i32 @__sched_cpucount(i64 noundef, ptr noundef) local_unnamed_addr #2

; Function Attrs: mustprogress nocallback nofree nosync nounwind willreturn memory(argmem: readwrite)
declare void @llvm.lifetime.end.p0(i64 immarg, ptr captures(none)) #1

; Function Attrs: nounwind
declare noundef i32 @_ZNSt6thread20hardware_concurrencyEv() local_unnamed_addr #2


!llvm.module.flags = !{!0, !1, !2, !3, !4, !5, !6}

!0 = !{i32 7, !"Dwarf Version", i32 5}
!1 = !{i32 2, !"Debug Info Version", i32 3}
!2 = !{i32 1, !"wchar_size", i32 4}
!3 = !{i32 7, !"openmp", i32 51}
!4 = !{i32 8, !"PIC Level", i32 2}
!5 = !{i32 7, !"uwtable", i32 2}
!6 = !{i32 7, !"debug-info-assignment-tracking", i1 true}
